target datalayout = "e-m:e-p270:32:32-p271:32:32-p272:64:64-i64:64-i128:128-f80:128-n8:16:32:64-S128"
target triple = "x86_64-pc-linux-gnu"

%"class.cv::APNGFrame" = type { ptr, i32, i32, i8, [256 x %"struct.cv::rgb"], [256 x i8], i32, i32, i32, i32, %"class.std::vector" }
%"struct.cv::rgb" = type { i8, i8, i8 }
%"class.std::vector" = type { %"struct.std::_Vector_base" }
%"struct.std::_Vector_base" = type { %"struct.std::_Vector_base<unsigned char *, std::allocator<unsigned char *>>::_Vector_impl" }
%"struct.std::_Vector_base<unsigned char *, std::allocator<unsigned char *>>::_Vector_impl" = type { %"struct.std::_Vector_base<unsigned char *, std::allocator<unsigned char *>>::_Vector_impl_data" }
%"struct.std::_Vector_base<unsigned char *, std::allocator<unsigned char *>>::_Vector_impl_data" = type { ptr, ptr, ptr }
%"class.cv::Mat" = type { i32, i32, i32, i32, ptr, ptr, ptr, ptr, ptr, ptr, %"struct.cv::MatSize", %"struct.cv::MatStep" }
%"struct.cv::MatSize" = type { ptr }
%"struct.cv::MatStep" = type { ptr, [2 x i64] }
%"class.cv::PngDecoder" = type <{ %"class.cv::BaseImageDecoder", ptr, ptr, ptr, i32, [4 x i8], ptr, i32, [4 x i8], %"struct.cv::Chunk", i32, [4 x i8], i64, %"class.std::vector.21", %"class.cv::APNGFrame", %"class.cv::APNGFrame", %"class.cv::APNGFrame", %"class.cv::Mat", %"class.cv::Mat", i32, i32, i32, i32, i32, i32, i32, i32, i8, i8, [6 x i8] }>
%"class.cv::BaseImageDecoder" = type { ptr, i32, i32, i32, i32, %"class.std::__cxx11::basic_string", %"class.std::__cxx11::basic_string", %"class.cv::Mat", i8, i8, [6 x i8], %"class.cv::ExifReader", i64, %"struct.cv::Animation" }
%"class.std::__cxx11::basic_string" = type { %"struct.std::__cxx11::basic_string<char>::_Alloc_hider", i64, %union.anon }
%"struct.std::__cxx11::basic_string<char>::_Alloc_hider" = type { ptr }
%union.anon = type { i64, [8 x i8] }
%"class.cv::ExifReader" = type <{ %"class.std::vector.3", %"class.std::map", i32, [4 x i8] }>
%"class.std::vector.3" = type { %"struct.std::_Vector_base.4" }
%"struct.std::_Vector_base.4" = type { %"struct.std::_Vector_base<unsigned char, std::allocator<unsigned char>>::_Vector_impl" }
%"struct.std::_Vector_base<unsigned char, std::allocator<unsigned char>>::_Vector_impl" = type { %"struct.std::_Vector_base<unsigned char, std::allocator<unsigned char>>::_Vector_impl_data" }
%"struct.std::_Vector_base<unsigned char, std::allocator<unsigned char>>::_Vector_impl_data" = type { ptr, ptr, ptr }
%"class.std::map" = type { %"class.std::_Rb_tree" }
%"class.std::_Rb_tree" = type { %"struct.std::_Rb_tree<int, std::pair<const int, cv::ExifEntry_t>, std::_Select1st<std::pair<const int, cv::ExifEntry_t>>, std::less<int>>::_Rb_tree_impl" }
%"struct.std::_Rb_tree<int, std::pair<const int, cv::ExifEntry_t>, std::_Select1st<std::pair<const int, cv::ExifEntry_t>>, std::less<int>>::_Rb_tree_impl" = type { [8 x i8], %"struct.std::_Rb_tree_header" }
%"struct.std::_Rb_tree_header" = type { %"struct.std::_Rb_tree_node_base", i64 }
%"struct.std::_Rb_tree_node_base" = type { i32, ptr, ptr, ptr }
%"struct.cv::Animation" = type { i32, %"class.cv::Scalar_", %"class.std::vector.11", %"class.std::vector.16" }
%"class.cv::Scalar_" = type { %"class.cv::Vec" }
%"class.cv::Vec" = type { %"class.cv::Matx" }
%"class.cv::Matx" = type { [4 x double] }
%"class.std::vector.11" = type { %"struct.std::_Vector_base.12" }
%"struct.std::_Vector_base.12" = type { %"struct.std::_Vector_base<int, std::allocator<int>>::_Vector_impl" }
%"struct.std::_Vector_base<int, std::allocator<int>>::_Vector_impl" = type { %"struct.std::_Vector_base<int, std::allocator<int>>::_Vector_impl_data" }
%"struct.std::_Vector_base<int, std::allocator<int>>::_Vector_impl_data" = type { ptr, ptr, ptr }
%"class.std::vector.16" = type { %"struct.std::_Vector_base.17" }
%"struct.std::_Vector_base.17" = type { %"struct.std::_Vector_base<cv::Mat, std::allocator<cv::Mat>>::_Vector_impl" }
%"struct.std::_Vector_base<cv::Mat, std::allocator<cv::Mat>>::_Vector_impl" = type { %"struct.std::_Vector_base<cv::Mat, std::allocator<cv::Mat>>::_Vector_impl_data" }
%"struct.std::_Vector_base<cv::Mat, std::allocator<cv::Mat>>::_Vector_impl_data" = type { ptr, ptr, ptr }
%"struct.cv::Chunk" = type { %"class.std::vector.3" }
%"class.std::vector.21" = type { %"struct.std::_Vector_base.22" }
%"struct.std::_Vector_base.22" = type { %"struct.std::_Vector_base<cv::Chunk, std::allocator<cv::Chunk>>::_Vector_impl" }
%"struct.std::_Vector_base<cv::Chunk, std::allocator<cv::Chunk>>::_Vector_impl" = type { %"struct.std::_Vector_base<cv::Chunk, std::allocator<cv::Chunk>>::_Vector_impl_data" }
%"struct.std::_Vector_base<cv::Chunk, std::allocator<cv::Chunk>>::_Vector_impl_data" = type { ptr, ptr, ptr }

@.str.1 = private unnamed_addr constant [7 x i8] c"1.6.37\00", align 1

; Function Attrs: mustprogress uwtable
define hidden void @_ZN2cv10PngDecoder11ClearPngPtrEv(ptr noundef nonnull align 8 dereferenceable(3976) %0) #5 align 2 {
  %2 = alloca ptr, align 8
  store ptr %0, ptr %2, align 8, !tbaa !50
  %3 = load ptr, ptr %2, align 8
  %4 = getelementptr inbounds nuw %"class.cv::PngDecoder", ptr %3, i32 0, i32 1
  %5 = load ptr, ptr %4, align 8, !tbaa !54
  %6 = icmp ne ptr %5, null
  br i1 %6, label %7, label %11

7:                                                ; preds = %1
  %8 = getelementptr inbounds nuw %"class.cv::PngDecoder", ptr %3, i32 0, i32 1
  %9 = getelementptr inbounds nuw %"class.cv::PngDecoder", ptr %3, i32 0, i32 2
  %10 = getelementptr inbounds nuw %"class.cv::PngDecoder", ptr %3, i32 0, i32 3
  call void @png_destroy_read_struct(ptr noundef %8, ptr noundef %9, ptr noundef %10)
  br label %11

11:                                               ; preds = %7, %1
  %12 = getelementptr inbounds nuw %"class.cv::PngDecoder", ptr %3, i32 0, i32 1
  store ptr null, ptr %12, align 8, !tbaa !54
  %13 = getelementptr inbounds nuw %"class.cv::PngDecoder", ptr %3, i32 0, i32 2
  store ptr null, ptr %13, align 8, !tbaa !96
  %14 = getelementptr inbounds nuw %"class.cv::PngDecoder", ptr %3, i32 0, i32 3
  store ptr null, ptr %14, align 8, !tbaa !97
  ret void
}

; Function Attrs: mustprogress uwtable
define hidden noundef zeroext i1 @_ZN2cv10PngDecoder10InitPngPtrEv(ptr noundef nonnull align 8 dereferenceable(3976) %0) #5 align 2 {
  %2 = alloca i1, align 1
  %3 = alloca ptr, align 8
  store ptr %0, ptr %3, align 8, !tbaa !50
  %4 = load ptr, ptr %3, align 8
  call void @_ZN2cv10PngDecoder11ClearPngPtrEv(ptr noundef nonnull align 8 dereferenceable(3976) %4)
  %5 = call noalias ptr @png_create_read_struct(ptr noundef @.str.1, ptr noundef null, ptr noundef null, ptr noundef null)
  %6 = getelementptr inbounds nuw %"class.cv::PngDecoder", ptr %4, i32 0, i32 1
  store ptr %5, ptr %6, align 8, !tbaa !54
  %7 = getelementptr inbounds nuw %"class.cv::PngDecoder", ptr %4, i32 0, i32 1
  %8 = load ptr, ptr %7, align 8, !tbaa !54
  %9 = icmp ne ptr %8, null
  br i1 %9, label %11, label %10

10:                                               ; preds = %1
  store i1 false, ptr %2, align 1
  br label %29

11:                                               ; preds = %1
  %12 = getelementptr inbounds nuw %"class.cv::PngDecoder", ptr %4, i32 0, i32 1
  %13 = load ptr, ptr %12, align 8, !tbaa !54
  %14 = call noalias ptr @png_create_info_struct(ptr noundef %13)
  %15 = getelementptr inbounds nuw %"class.cv::PngDecoder", ptr %4, i32 0, i32 2
  store ptr %14, ptr %15, align 8, !tbaa !96
  %16 = getelementptr inbounds nuw %"class.cv::PngDecoder", ptr %4, i32 0, i32 1
  %17 = load ptr, ptr %16, align 8, !tbaa !54
  %18 = call noalias ptr @png_create_info_struct(ptr noundef %17)
  %19 = getelementptr inbounds nuw %"class.cv::PngDecoder", ptr %4, i32 0, i32 3
  store ptr %18, ptr %19, align 8, !tbaa !97
  %20 = getelementptr inbounds nuw %"class.cv::PngDecoder", ptr %4, i32 0, i32 2
  %21 = load ptr, ptr %20, align 8, !tbaa !96
  %22 = icmp ne ptr %21, null
  br i1 %22, label %23, label %27

23:                                               ; preds = %11
  %24 = getelementptr inbounds nuw %"class.cv::PngDecoder", ptr %4, i32 0, i32 3
  %25 = load ptr, ptr %24, align 8, !tbaa !97
  %26 = icmp ne ptr %25, null
  br label %27

27:                                               ; preds = %23, %11
  %28 = phi i1 [ false, %11 ], [ %26, %23 ]
  store i1 %28, ptr %2, align 1
  br label %29

29:                                               ; preds = %27, %10
  %30 = load i1, ptr %2, align 1
  ret i1 %30
}