; Function Attrs: mustprogress uwtable
define hidden noundef zeroext i1 @_ZN2cv10PngDecoder10InitPngPtrEv(ptr noundef nonnull align 8 dereferenceable(3976) %0) local_unnamed_addr #5 align 2 {
  %2 = getelementptr inbounds nuw i8, ptr %0, i64 368
  %3 = load ptr, ptr %2, align 8, !tbaa !100
  %.not.i = icmp eq ptr %3, null
  br i1 %.not.i, label %_ZN2cv10PngDecoder11ClearPngPtrEv.exit, label %4

4:                                                ; preds = %1
  %5 = getelementptr inbounds nuw i8, ptr %0, i64 376
  %6 = getelementptr inbounds nuw i8, ptr %0, i64 384
  tail call void @png_destroy_read_struct(ptr noundef nonnull %2, ptr noundef nonnull %5, ptr noundef nonnull %6)
  br label %_ZN2cv10PngDecoder11ClearPngPtrEv.exit

_ZN2cv10PngDecoder11ClearPngPtrEv.exit:           ; preds = %1, %4
  tail call void @llvm.memset.p0.i64(ptr noundef nonnull align 8 dereferenceable(24) %2, i8 0, i64 24, i1 false)
  %7 = tail call noalias ptr @png_create_read_struct(ptr noundef nonnull @.str.1, ptr noundef null, ptr noundef null, ptr noundef null)
  store ptr %7, ptr %2, align 8, !tbaa !100
  %.not = icmp eq ptr %7, null
  br i1 %.not, label %16, label %8

8:                                                ; preds = %_ZN2cv10PngDecoder11ClearPngPtrEv.exit
  %9 = tail call noalias ptr @png_create_info_struct(ptr noundef nonnull %7)
  %10 = getelementptr inbounds nuw i8, ptr %0, i64 376
  store ptr %9, ptr %10, align 8, !tbaa !101
  %11 = load ptr, ptr %2, align 8, !tbaa !100
  %12 = tail call noalias ptr @png_create_info_struct(ptr noundef %11)
  %13 = getelementptr inbounds nuw i8, ptr %0, i64 384
  store ptr %12, ptr %13, align 8, !tbaa !102
  %14 = load ptr, ptr %10, align 8, !tbaa !101
  %.not3 = icmp ne ptr %14, null
  %15 = icmp ne ptr %12, null
  %spec.select = select i1 %.not3, i1 %15, i1 false
  br label %16

16:                                               ; preds = %_ZN2cv10PngDecoder11ClearPngPtrEv.exit, %8
  %.0 = phi i1 [ %spec.select, %8 ], [ false, %_ZN2cv10PngDecoder11ClearPngPtrEv.exit ]
  ret i1 %.0
}